; Function Attrs: nounwind uwtable
define dso_local noundef i64 @pg_replication_origin_drop(ptr noundef readonly captures(none) %0) local_unnamed_addr #0 {
  %2 = tail call zeroext i1 @RecoveryInProgress() #10
  br i1 %2, label %3, label %replorigin_check_prerequisites.exit

3:                                                ; preds = %1
  %4 = tail call zeroext i1 @errstart_cold(i32 noundef 21, ptr noundef null) #11
  tail call void @llvm.assume(i1 %4)
  %5 = tail call i32 @errcode(i32 noundef 100663618) #10
  %6 = tail call i32 (ptr, ...) @errmsg(ptr noundef nonnull @.str.33) #10
  tail call void @errfinish(ptr noundef nonnull @.str.1, i32 noundef 199, ptr noundef nonnull @__func__.replorigin_check_prerequisites) #10
  unreachable

replorigin_check_prerequisites.exit:              ; preds = %1
  %7 = getelementptr inbounds nuw i8, ptr %0, i64 32
  %8 = load i64, ptr %7, align 8
  %9 = inttoptr i64 %8 to ptr
  %10 = tail call ptr @text_to_cstring(ptr noundef %9) #10
  tail call void @replorigin_drop_by_name(ptr noundef %10, i1 noundef zeroext false, i1 noundef zeroext true)
  tail call void @pfree(ptr noundef %10) #10
  ret i64 0
}